target datalayout = "e-m:e-p270:32:32-p271:32:32-p272:64:64-i64:64-i128:128-f80:128-n8:16:32:64-S128"
target triple = "x86_64-pc-linux-gnu"

%struct.macroblockd = type { i32, i32, i32, i8, [3 x %struct.macroblockd_plane], %struct.TileInfo, ptr, i8, i8, i8, i8, ptr, ptr, ptr, ptr, ptr, i32, i32, i32, i32, i32, [2 x ptr], ptr, [3 x ptr], [3 x [32 x i8]], ptr, [32 x i8], ptr, ptr, [32 x i8], [3 x %struct.WienerInfo], [3 x %struct.SgrprojInfo], i8, i8, [29 x [8 x %struct.candidate_mv]], [29 x [8 x i16]], i8, i8, [8 x i8], ptr, i32, [8 x i32], [8 x i32], i32, i32, ptr, ptr, i8, [4 x i8], [4 x i8], [7 x i8], [32768 x i8], %struct.cfl_ctx, [2 x i16], ptr, [2 x ptr] }
%struct.macroblockd_plane = type { i8, i32, i32, %struct.buf_2d, [2 x %struct.buf_2d], ptr, ptr, [8 x [2 x i16]], ptr, i8, i8, [8 x [19 x ptr]], [8 x [19 x ptr]] }
%struct.buf_2d = type { ptr, ptr, i32, i32, i32 }
%struct.TileInfo = type { i32, i32, i32, i32, i32, i32 }
%struct.WienerInfo = type { [8 x i16], [8 x i16] }
%struct.SgrprojInfo = type { i32, [2 x i32] }
%struct.candidate_mv = type { %union.int_mv, %union.int_mv }
%union.int_mv = type { i32 }
%struct.cfl_ctx = type { [1024 x i16], [1024 x i16], [2 x i32], i32, [2 x [32 x i16]], i32, i32, i32, i32, i32, i32 }
%struct.MB_MODE_INFO = type <{ i8, i8, i8, i8, i32, [2 x %union.int_mv], [2 x i8], [2 x i8], %union.int_interpfilters, i8, i8, i8, i8, %struct.WarpedMotionParams, i8, i8, [6 x i8], %struct.INTERINTER_COMPOUND_DATA, [2 x i8], %struct.FILTER_INTRA_MODE_INFO, i8, i8, %struct.PALETTE_MODE_INFO, i8, i8, [16 x i8], i8, [4 x i8], i16, [7 x i8] }>
%union.int_interpfilters = type { i32 }
%struct.WarpedMotionParams = type { [8 x i32], i16, i16, i16, i16, i8, i8 }
%struct.INTERINTER_COMPOUND_DATA = type { ptr, i8, i8, i8, i8 }
%struct.FILTER_INTRA_MODE_INFO = type { i8, i8 }
%struct.PALETTE_MODE_INFO = type { [24 x i16], [2 x i8] }

; Function Attrs: nounwind uwtable
define internal void @palette_add_to_cache(ptr noundef %0, ptr noundef %1, i16 noundef zeroext %2) #0 {
  %4 = alloca ptr, align 8
  %5 = alloca ptr, align 8
  %6 = alloca i16, align 2
  store ptr %0, ptr %4, align 8
  store ptr %1, ptr %5, align 8
  store i16 %2, ptr %6, align 2
  %7 = load ptr, ptr %5, align 8
  %8 = load i32, ptr %7, align 4
  %9 = icmp sgt i32 %8, 0
  br i1 %9, label %10, label %23

10:                                               ; preds = %3
  %11 = load i16, ptr %6, align 2
  %12 = zext i16 %11 to i32
  %13 = load ptr, ptr %4, align 8
  %14 = load ptr, ptr %5, align 8
  %15 = load i32, ptr %14, align 4
  %16 = sub nsw i32 %15, 1
  %17 = sext i32 %16 to i64
  %18 = getelementptr inbounds i16, ptr %13, i64 %17
  %19 = load i16, ptr %18, align 2
  %20 = zext i16 %19 to i32
  %21 = icmp eq i32 %12, %20
  br i1 %21, label %22, label %23

22:                                               ; preds = %10
  br label %31

23:                                               ; preds = %10, %3
  %24 = load i16, ptr %6, align 2
  %25 = load ptr, ptr %4, align 8
  %26 = load ptr, ptr %5, align 8
  %27 = load i32, ptr %26, align 4
  %28 = add nsw i32 %27, 1
  store i32 %28, ptr %26, align 4
  %29 = sext i32 %27 to i64
  %30 = getelementptr inbounds i16, ptr %25, i64 %29
  store i16 %24, ptr %30, align 2
  br label %31

31:                                               ; preds = %23, %22
  ret void
}

; Function Attrs: nounwind uwtable
define hidden i32 @av1_get_palette_cache(ptr noundef %0, i32 noundef %1, ptr noundef %2) #0 {
  %4 = alloca i32, align 4
  %5 = alloca ptr, align 8
  %6 = alloca i32, align 4
  %7 = alloca ptr, align 8
  %8 = alloca i32, align 4
  %9 = alloca ptr, align 8
  %10 = alloca ptr, align 8
  %11 = alloca i32, align 4
  %12 = alloca i32, align 4
  %13 = alloca i32, align 4
  %14 = alloca i32, align 4
  %15 = alloca i32, align 4
  %16 = alloca ptr, align 8
  %17 = alloca ptr, align 8
  %18 = alloca i16, align 2
  %19 = alloca i16, align 2
  %20 = alloca i16, align 2
  %21 = alloca i16, align 2
  store ptr %0, ptr %5, align 8
  store i32 %1, ptr %6, align 4
  store ptr %2, ptr %7, align 8
  %22 = load ptr, ptr %5, align 8
  %23 = getelementptr inbounds nuw %struct.macroblockd, ptr %22, i32 0, i32 19
  %24 = load i32, ptr %23, align 4
  %25 = sub nsw i32 0, %24
  %26 = ashr i32 %25, 3
  store i32 %26, ptr %8, align 4
  %27 = load i32, ptr %8, align 4
  %28 = srem i32 %27, 64
  %29 = icmp ne i32 %28, 0
  br i1 %29, label %30, label %34

30:                                               ; preds = %3
  %31 = load ptr, ptr %5, align 8
  %32 = getelementptr inbounds nuw %struct.macroblockd, ptr %31, i32 0, i32 12
  %33 = load ptr, ptr %32, align 16
  br label %35

34:                                               ; preds = %3
  br label %35

35:                                               ; preds = %34, %30
  %36 = phi ptr [ %33, %30 ], [ null, %34 ]
  store ptr %36, ptr %9, align 8
  %37 = load ptr, ptr %5, align 8
  %38 = getelementptr inbounds nuw %struct.macroblockd, ptr %37, i32 0, i32 11
  %39 = load ptr, ptr %38, align 8
  store ptr %39, ptr %10, align 8
  store i32 0, ptr %11, align 4
  store i32 0, ptr %12, align 4
  %40 = load ptr, ptr %9, align 8
  %41 = icmp ne ptr %40, null
  br i1 %41, label %42, label %53

42:                                               ; preds = %35
  %43 = load ptr, ptr %9, align 8
  %44 = getelementptr inbounds nuw %struct.MB_MODE_INFO, ptr %43, i32 0, i32 22
  %45 = getelementptr inbounds nuw %struct.PALETTE_MODE_INFO, ptr %44, i32 0, i32 1
  %46 = load i32, ptr %6, align 4
  %47 = icmp ne i32 %46, 0
  %48 = zext i1 %47 to i32
  %49 = sext i32 %48 to i64
  %50 = getelementptr inbounds [2 x i8], ptr %45, i64 0, i64 %49
  %51 = load i8, ptr %50, align 1
  %52 = zext i8 %51 to i32
  store i32 %52, ptr %11, align 4
  br label %53

53:                                               ; preds = %42, %35
  %54 = load ptr, ptr %10, align 8
  %55 = icmp ne ptr %54, null
  br i1 %55, label %56, label %67

56:                                               ; preds = %53
  %57 = load ptr, ptr %10, align 8
  %58 = getelementptr inbounds nuw %struct.MB_MODE_INFO, ptr %57, i32 0, i32 22
  %59 = getelementptr inbounds nuw %struct.PALETTE_MODE_INFO, ptr %58, i32 0, i32 1
  %60 = load i32, ptr %6, align 4
  %61 = icmp ne i32 %60, 0
  %62 = zext i1 %61 to i32
  %63 = sext i32 %62 to i64
  %64 = getelementptr inbounds [2 x i8], ptr %59, i64 0, i64 %63
  %65 = load i8, ptr %64, align 1
  %66 = zext i8 %65 to i32
  store i32 %66, ptr %12, align 4
  br label %67

67:                                               ; preds = %56, %53
  %68 = load i32, ptr %11, align 4
  %69 = icmp eq i32 %68, 0
  br i1 %69, label %70, label %74

70:                                               ; preds = %67
  %71 = load i32, ptr %12, align 4
  %72 = icmp eq i32 %71, 0
  br i1 %72, label %73, label %74

73:                                               ; preds = %70
  store i32 0, ptr %4, align 4
  br label %179

74:                                               ; preds = %70, %67
  %75 = load i32, ptr %6, align 4
  %76 = mul nsw i32 %75, 8
  store i32 %76, ptr %13, align 4
  %77 = load i32, ptr %6, align 4
  %78 = mul nsw i32 %77, 8
  store i32 %78, ptr %14, align 4
  store i32 0, ptr %15, align 4
  %79 = load ptr, ptr %9, align 8
  %80 = icmp ne ptr %79, null
  br i1 %80, label %81, label %86

81:                                               ; preds = %74
  %82 = load ptr, ptr %9, align 8
  %83 = getelementptr inbounds nuw %struct.MB_MODE_INFO, ptr %82, i32 0, i32 22
  %84 = getelementptr inbounds nuw %struct.PALETTE_MODE_INFO, ptr %83, i32 0, i32 0
  %85 = getelementptr inbounds [24 x i16], ptr %84, i64 0, i64 0
  br label %87

86:                                               ; preds = %74
  br label %87

87:                                               ; preds = %86, %81
  %88 = phi ptr [ %85, %81 ], [ null, %86 ]
  store ptr %88, ptr %16, align 8
  %89 = load ptr, ptr %10, align 8
  %90 = icmp ne ptr %89, null
  br i1 %90, label %91, label %96

91:                                               ; preds = %87
  %92 = load ptr, ptr %10, align 8
  %93 = getelementptr inbounds nuw %struct.MB_MODE_INFO, ptr %92, i32 0, i32 22
  %94 = getelementptr inbounds nuw %struct.PALETTE_MODE_INFO, ptr %93, i32 0, i32 0
  %95 = getelementptr inbounds [24 x i16], ptr %94, i64 0, i64 0
  br label %97

96:                                               ; preds = %87
  br label %97

97:                                               ; preds = %96, %91
  %98 = phi ptr [ %95, %91 ], [ null, %96 ]
  store ptr %98, ptr %17, align 8
  br label %99

99:                                               ; preds = %148, %97
  %100 = load i32, ptr %11, align 4
  %101 = icmp sgt i32 %100, 0
  br i1 %101, label %102, label %105

102:                                              ; preds = %99
  %103 = load i32, ptr %12, align 4
  %104 = icmp sgt i32 %103, 0
  br label %105

105:                                              ; preds = %102, %99
  %106 = phi i1 [ false, %99 ], [ %104, %102 ]
  br i1 %106, label %107, label %149

107:                                              ; preds = %105
  %108 = load ptr, ptr %16, align 8
  %109 = load i32, ptr %13, align 4
  %110 = sext i32 %109 to i64
  %111 = getelementptr inbounds i16, ptr %108, i64 %110
  %112 = load i16, ptr %111, align 2
  store i16 %112, ptr %18, align 2
  %113 = load ptr, ptr %17, align 8
  %114 = load i32, ptr %14, align 4
  %115 = sext i32 %114 to i64
  %116 = getelementptr inbounds i16, ptr %113, i64 %115
  %117 = load i16, ptr %116, align 2
  store i16 %117, ptr %19, align 2
  %118 = load i16, ptr %19, align 2
  %119 = zext i16 %118 to i32
  %120 = load i16, ptr %18, align 2
  %121 = zext i16 %120 to i32
  %122 = icmp slt i32 %119, %121
  br i1 %122, label %123, label %130

123:                                              ; preds = %107
  %124 = load ptr, ptr %7, align 8
  %125 = load i16, ptr %19, align 2
  call void @palette_add_to_cache(ptr noundef %124, ptr noundef %15, i16 noundef zeroext %125)
  %126 = load i32, ptr %14, align 4
  %127 = add nsw i32 %126, 1
  store i32 %127, ptr %14, align 4
  %128 = load i32, ptr %12, align 4
  %129 = add nsw i32 %128, -1
  store i32 %129, ptr %12, align 4
  br label %148

130:                                              ; preds = %107
  %131 = load ptr, ptr %7, align 8
  %132 = load i16, ptr %18, align 2
  call void @palette_add_to_cache(ptr noundef %131, ptr noundef %15, i16 noundef zeroext %132)
  %133 = load i32, ptr %13, align 4
  %134 = add nsw i32 %133, 1
  store i32 %134, ptr %13, align 4
  %135 = load i32, ptr %11, align 4
  %136 = add nsw i32 %135, -1
  store i32 %136, ptr %11, align 4
  %137 = load i16, ptr %19, align 2
  %138 = zext i16 %137 to i32
  %139 = load i16, ptr %18, align 2
  %140 = zext i16 %139 to i32
  %141 = icmp eq i32 %138, %140
  br i1 %141, label %142, label %147

142:                                              ; preds = %130
  %143 = load i32, ptr %14, align 4
  %144 = add nsw i32 %143, 1
  store i32 %144, ptr %14, align 4
  %145 = load i32, ptr %12, align 4
  %146 = add nsw i32 %145, -1
  store i32 %146, ptr %12, align 4
  br label %147

147:                                              ; preds = %142, %130
  br label %148

148:                                              ; preds = %147, %123
  br label %99, !llvm.loop !4

149:                                              ; preds = %105
  br label %150

150:                                              ; preds = %154, %149
  %151 = load i32, ptr %11, align 4
  %152 = add nsw i32 %151, -1
  store i32 %152, ptr %11, align 4
  %153 = icmp sgt i32 %151, 0
  br i1 %153, label %154, label %163

154:                                              ; preds = %150
  %155 = load ptr, ptr %16, align 8
  %156 = load i32, ptr %13, align 4
  %157 = add nsw i32 %156, 1
  store i32 %157, ptr %13, align 4
  %158 = sext i32 %156 to i64
  %159 = getelementptr inbounds i16, ptr %155, i64 %158
  %160 = load i16, ptr %159, align 2
  store i16 %160, ptr %20, align 2
  %161 = load ptr, ptr %7, align 8
  %162 = load i16, ptr %20, align 2
  call void @palette_add_to_cache(ptr noundef %161, ptr noundef %15, i16 noundef zeroext %162)
  br label %150, !llvm.loop !6

163:                                              ; preds = %150
  br label %164

164:                                              ; preds = %168, %163
  %165 = load i32, ptr %12, align 4
  %166 = add nsw i32 %165, -1
  store i32 %166, ptr %12, align 4
  %167 = icmp sgt i32 %165, 0
  br i1 %167, label %168, label %177

168:                                              ; preds = %164
  %169 = load ptr, ptr %17, align 8
  %170 = load i32, ptr %14, align 4
  %171 = add nsw i32 %170, 1
  store i32 %171, ptr %14, align 4
  %172 = sext i32 %170 to i64
  %173 = getelementptr inbounds i16, ptr %169, i64 %172
  %174 = load i16, ptr %173, align 2
  store i16 %174, ptr %21, align 2
  %175 = load ptr, ptr %7, align 8
  %176 = load i16, ptr %21, align 2
  call void @palette_add_to_cache(ptr noundef %175, ptr noundef %15, i16 noundef zeroext %176)
  br label %164, !llvm.loop !7

177:                                              ; preds = %164
  %178 = load i32, ptr %15, align 4
  store i32 %178, ptr %4, align 4
  br label %179

179:                                              ; preds = %177, %73
  %180 = load i32, ptr %4, align 4
  ret i32 %180
}