; Function Attrs: nofree norecurse nosync nounwind memory(read, argmem: readwrite, inaccessiblemem: none) uwtable
define hidden i32 @av1_get_palette_cache(ptr nocapture noundef readonly %0, i32 noundef %1, ptr nocapture noundef %2) local_unnamed_addr #1 {
  %4 = getelementptr inbounds nuw i8, ptr %0, i64 7932
  %5 = load i32, ptr %4, align 4
  %6 = sub nsw i32 0, %5
  %7 = and i32 %6, 504
  %.not = icmp eq i32 %7, 0
  br i1 %.not, label %.thread, label %10

.thread:                                          ; preds = %3
  %8 = getelementptr inbounds nuw i8, ptr %0, i64 7880
  %9 = load ptr, ptr %8, align 8
  br label %22

10:                                               ; preds = %3
  %11 = getelementptr inbounds nuw i8, ptr %0, i64 7888
  %12 = load ptr, ptr %11, align 16
  %13 = getelementptr inbounds nuw i8, ptr %0, i64 7880
  %14 = load ptr, ptr %13, align 8
  %.not64 = icmp eq ptr %12, null
  br i1 %.not64, label %22, label %15

15:                                               ; preds = %10
  %16 = getelementptr inbounds i8, ptr %12, i64 150
  %17 = icmp ne i32 %1, 0
  %18 = zext i1 %17 to i64
  %19 = getelementptr inbounds [2 x i8], ptr %16, i64 0, i64 %18
  %20 = load i8, ptr %19, align 1
  %21 = zext i8 %20 to i32
  br label %22

22:                                               ; preds = %.thread, %15, %10
  %.not6478 = phi i1 [ false, %15 ], [ true, %10 ], [ true, %.thread ]
  %23 = phi ptr [ %14, %15 ], [ %14, %10 ], [ %9, %.thread ]
  %24 = phi ptr [ %12, %15 ], [ null, %10 ], [ null, %.thread ]
  %.049 = phi i32 [ %21, %15 ], [ 0, %10 ], [ 0, %.thread ]
  %.not65 = icmp eq ptr %23, null
  br i1 %.not65, label %32, label %25

25:                                               ; preds = %22
  %26 = getelementptr inbounds i8, ptr %23, i64 150
  %27 = icmp ne i32 %1, 0
  %28 = zext i1 %27 to i64
  %29 = getelementptr inbounds [2 x i8], ptr %26, i64 0, i64 %28
  %30 = load i8, ptr %29, align 1
  %31 = zext i8 %30 to i32
  br label %32

32:                                               ; preds = %25, %22
  %.050 = phi i32 [ %31, %25 ], [ 0, %22 ]
  %33 = icmp eq i32 %.049, 0
  %34 = icmp eq i32 %.050, 0
  %or.cond = select i1 %33, i1 %34, i1 false
  br i1 %or.cond, label %.loopexit, label %35

35:                                               ; preds = %32
  %36 = shl nsw i32 %1, 3
  %37 = getelementptr inbounds nuw i8, ptr %24, i64 102
  %38 = select i1 %.not6478, ptr null, ptr %37
  %39 = getelementptr inbounds nuw i8, ptr %23, i64 102
  %40 = select i1 %.not65, ptr null, ptr %39
  %invariant.gep = getelementptr i8, ptr %2, i64 -2
  %41 = icmp ne i32 %.049, 0
  %42 = icmp ne i32 %.050, 0
  %43 = select i1 %41, i1 %42, i1 false
  br i1 %43, label %.lr.ph, label %.preheader79

.preheader79:                                     ; preds = %80, %35
  %.073.lcssa = phi i32 [ 0, %35 ], [ %.174, %80 ]
  %.057.lcssa = phi i32 [ %36, %35 ], [ %.158, %80 ]
  %.054.lcssa = phi i32 [ %36, %35 ], [ %.155, %80 ]
  %.151.lcssa = phi i32 [ %.050, %35 ], [ %.252, %80 ]
  %.1.lcssa = phi i32 [ %.049, %35 ], [ %.2, %80 ]
  %44 = icmp sgt i32 %.1.lcssa, 0
  br i1 %44, label %.lr.ph96.preheader, label %.preheader

.lr.ph96.preheader:                               ; preds = %.preheader79
  %45 = sext i32 %.054.lcssa to i64
  br label %.lr.ph96

.lr.ph:                                           ; preds = %35, %80
  %.186 = phi i32 [ %.2, %80 ], [ %.049, %35 ]
  %.15185 = phi i32 [ %.252, %80 ], [ %.050, %35 ]
  %.05484 = phi i32 [ %.155, %80 ], [ %36, %35 ]
  %.05783 = phi i32 [ %.158, %80 ], [ %36, %35 ]
  %.07382 = phi i32 [ %.174, %80 ], [ 0, %35 ]
  %46 = sext i32 %.05484 to i64
  %47 = getelementptr inbounds i16, ptr %38, i64 %46
  %48 = load i16, ptr %47, align 2
  %49 = sext i32 %.05783 to i64
  %50 = getelementptr inbounds i16, ptr %40, i64 %49
  %51 = load i16, ptr %50, align 2
  %52 = icmp ult i16 %51, %48
  %53 = icmp sgt i32 %.07382, 0
  br i1 %52, label %54, label %65

54:                                               ; preds = %.lr.ph
  br i1 %53, label %55, label %59

55:                                               ; preds = %54
  %56 = zext nneg i32 %.07382 to i64
  %gep81 = getelementptr i16, ptr %invariant.gep, i64 %56
  %57 = load i16, ptr %gep81, align 2
  %58 = icmp eq i16 %51, %57
  br i1 %58, label %palette_add_to_cache.exit, label %59

59:                                               ; preds = %55, %54
  %60 = add nsw i32 %.07382, 1
  %61 = sext i32 %.07382 to i64
  %62 = getelementptr inbounds i16, ptr %2, i64 %61
  store i16 %51, ptr %62, align 2
  br label %palette_add_to_cache.exit

palette_add_to_cache.exit:                        ; preds = %55, %59
  %.4 = phi i32 [ %.07382, %55 ], [ %60, %59 ]
  %63 = add nsw i32 %.05783, 1
  %64 = add nsw i32 %.15185, -1
  br label %80

65:                                               ; preds = %.lr.ph
  br i1 %53, label %66, label %70

66:                                               ; preds = %65
  %67 = zext nneg i32 %.07382 to i64
  %gep = getelementptr i16, ptr %invariant.gep, i64 %67
  %68 = load i16, ptr %gep, align 2
  %69 = icmp eq i16 %48, %68
  br i1 %69, label %palette_add_to_cache.exit66, label %70

70:                                               ; preds = %66, %65
  %71 = add nsw i32 %.07382, 1
  %72 = sext i32 %.07382 to i64
  %73 = getelementptr inbounds i16, ptr %2, i64 %72
  store i16 %48, ptr %73, align 2
  br label %palette_add_to_cache.exit66

palette_add_to_cache.exit66:                      ; preds = %66, %70
  %.5 = phi i32 [ %.07382, %66 ], [ %71, %70 ]
  %74 = add nsw i32 %.05484, 1
  %75 = add nsw i32 %.186, -1
  %76 = icmp eq i16 %51, %48
  br i1 %76, label %77, label %80

77:                                               ; preds = %palette_add_to_cache.exit66
  %78 = add nsw i32 %.05783, 1
  %79 = add nsw i32 %.15185, -1
  br label %80

80:                                               ; preds = %palette_add_to_cache.exit66, %77, %palette_add_to_cache.exit
  %.174 = phi i32 [ %.4, %palette_add_to_cache.exit ], [ %.5, %77 ], [ %.5, %palette_add_to_cache.exit66 ]
  %.158 = phi i32 [ %63, %palette_add_to_cache.exit ], [ %78, %77 ], [ %.05783, %palette_add_to_cache.exit66 ]
  %.155 = phi i32 [ %.05484, %palette_add_to_cache.exit ], [ %74, %77 ], [ %74, %palette_add_to_cache.exit66 ]
  %.252 = phi i32 [ %64, %palette_add_to_cache.exit ], [ %79, %77 ], [ %.15185, %palette_add_to_cache.exit66 ]
  %.2 = phi i32 [ %.186, %palette_add_to_cache.exit ], [ %75, %77 ], [ %75, %palette_add_to_cache.exit66 ]
  %81 = icmp ne i32 %.2, 0
  %82 = icmp ne i32 %.252, 0
  %83 = select i1 %81, i1 %82, i1 false
  br i1 %83, label %.lr.ph, label %.preheader79, !llvm.loop !4

.preheader:                                       ; preds = %palette_add_to_cache.exit67, %.preheader79
  %.275.lcssa = phi i32 [ %.073.lcssa, %.preheader79 ], [ %.6, %palette_add_to_cache.exit67 ]
  %84 = icmp sgt i32 %.151.lcssa, 0
  br i1 %84, label %.lr.ph103.preheader, label %.loopexit

.lr.ph103.preheader:                              ; preds = %.preheader
  %85 = sext i32 %.057.lcssa to i64
  br label %.lr.ph103

.lr.ph96:                                         ; preds = %.lr.ph96.preheader, %palette_add_to_cache.exit67
  %indvars.iv = phi i64 [ %45, %.lr.ph96.preheader ], [ %indvars.iv.next, %palette_add_to_cache.exit67 ]
  %.395 = phi i32 [ %.1.lcssa, %.lr.ph96.preheader ], [ %86, %palette_add_to_cache.exit67 ]
  %.27593 = phi i32 [ %.073.lcssa, %.lr.ph96.preheader ], [ %.6, %palette_add_to_cache.exit67 ]
  %86 = add nsw i32 %.395, -1
  %indvars.iv.next = add nsw i64 %indvars.iv, 1
  %87 = getelementptr inbounds i16, ptr %38, i64 %indvars.iv
  %88 = load i16, ptr %87, align 2
  %89 = icmp sgt i32 %.27593, 0
  br i1 %89, label %90, label %94

90:                                               ; preds = %.lr.ph96
  %91 = zext nneg i32 %.27593 to i64
  %gep92 = getelementptr i16, ptr %invariant.gep, i64 %91
  %92 = load i16, ptr %gep92, align 2
  %93 = icmp eq i16 %88, %92
  br i1 %93, label %palette_add_to_cache.exit67, label %94

94:                                               ; preds = %90, %.lr.ph96
  %95 = add nsw i32 %.27593, 1
  %96 = sext i32 %.27593 to i64
  %97 = getelementptr inbounds i16, ptr %2, i64 %96
  store i16 %88, ptr %97, align 2
  br label %palette_add_to_cache.exit67

palette_add_to_cache.exit67:                      ; preds = %90, %94
  %.6 = phi i32 [ %.27593, %90 ], [ %95, %94 ]
  %98 = icmp ugt i32 %.395, 1
  br i1 %98, label %.lr.ph96, label %.preheader, !llvm.loop !6

.lr.ph103:                                        ; preds = %.lr.ph103.preheader, %palette_add_to_cache.exit68
  %indvars.iv106 = phi i64 [ %85, %.lr.ph103.preheader ], [ %indvars.iv.next107, %palette_add_to_cache.exit68 ]
  %.353102 = phi i32 [ %.151.lcssa, %.lr.ph103.preheader ], [ %99, %palette_add_to_cache.exit68 ]
  %.376100 = phi i32 [ %.275.lcssa, %.lr.ph103.preheader ], [ %.7, %palette_add_to_cache.exit68 ]
  %99 = add nsw i32 %.353102, -1
  %indvars.iv.next107 = add nsw i64 %indvars.iv106, 1
  %100 = getelementptr inbounds i16, ptr %40, i64 %indvars.iv106
  %101 = load i16, ptr %100, align 2
  %102 = icmp sgt i32 %.376100, 0
  br i1 %102, label %103, label %107

103:                                              ; preds = %.lr.ph103
  %104 = zext nneg i32 %.376100 to i64
  %gep99 = getelementptr i16, ptr %invariant.gep, i64 %104
  %105 = load i16, ptr %gep99, align 2
  %106 = icmp eq i16 %101, %105
  br i1 %106, label %palette_add_to_cache.exit68, label %107

107:                                              ; preds = %103, %.lr.ph103
  %108 = add nsw i32 %.376100, 1
  %109 = sext i32 %.376100 to i64
  %110 = getelementptr inbounds i16, ptr %2, i64 %109
  store i16 %101, ptr %110, align 2
  br label %palette_add_to_cache.exit68

palette_add_to_cache.exit68:                      ; preds = %103, %107
  %.7 = phi i32 [ %.376100, %103 ], [ %108, %107 ]
  %111 = icmp ugt i32 %.353102, 1
  br i1 %111, label %.lr.ph103, label %.loopexit, !llvm.loop !7

.loopexit:                                        ; preds = %palette_add_to_cache.exit68, %.preheader, %32
  %.0 = phi i32 [ 0, %32 ], [ %.275.lcssa, %.preheader ], [ %.7, %palette_add_to_cache.exit68 ]
  ret i32 %.0
}